; Function Attrs: nounwind uwtable
define zeroext range(i8 0, 2) i8 @l_Lean_FuzzyMatching_fuzzyMatch(ptr noundef %0, ptr noundef %1, double noundef %2) local_unnamed_addr #0 {
  %4 = tail call ptr @l_Lean_FuzzyMatching_fuzzyMatchScoreWithThreshold_x3f(ptr noundef %0, ptr noundef %1, double noundef %2)
  %5 = ptrtoint ptr %4 to i64
  %6 = and i64 %5, 1
  %.not.i7 = icmp eq i64 %6, 0
  br i1 %.not.i7, label %lean_obj_tag.exit.thread, label %lean_obj_tag.exit

lean_obj_tag.exit:                                ; preds = %3
  %7 = and i64 %5, 8589934590
  %8 = icmp ne i64 %7, 0
  %spec.select = zext i1 %8 to i8
  br label %lean_dec.exit

lean_obj_tag.exit.thread:                         ; preds = %3
  %9 = getelementptr i8, ptr %4, i64 4
  %.val.i = load i32, ptr %9, align 4
  %10 = icmp ult i32 %.val.i, 16777216
  br i1 %10, label %lean_dec.exit, label %.thread

.thread:                                          ; preds = %lean_obj_tag.exit.thread
  %11 = load i32, ptr %4, align 4, !tbaa !5
  %12 = icmp sgt i32 %11, 1
  br i1 %12, label %13, label %15, !prof !10

13:                                               ; preds = %.thread
  %14 = add nsw i32 %11, -1
  store i32 %14, ptr %4, align 4, !tbaa !5
  br label %lean_dec.exit

15:                                               ; preds = %.thread
  %.not.i = icmp eq i32 %11, 0
  br i1 %.not.i, label %lean_dec.exit, label %16

16:                                               ; preds = %15
  tail call void @lean_dec_ref_cold(ptr noundef nonnull %4) #7
  br label %lean_dec.exit

lean_dec.exit:                                    ; preds = %lean_obj_tag.exit, %13, %15, %16, %lean_obj_tag.exit.thread
  %.0 = phi i8 [ 0, %lean_obj_tag.exit.thread ], [ 1, %16 ], [ 1, %15 ], [ 1, %13 ], [ %spec.select, %lean_obj_tag.exit ]
  ret i8 %.0
}